; Function Attrs: mustprogress nounwind uwtable
define hidden void @_ZN13DumperSupport20dump_instance_fieldsEP18AbstractDumpWriterP7oopDescP26DumperClassCacheTableEntry(ptr noundef %0, ptr noundef %1, ptr nocapture noundef readonly %2) local_unnamed_addr #3 align 2 {
  %4 = getelementptr inbounds i8, ptr %2, i64 52
  %5 = load i32, ptr %4, align 4
  %6 = icmp sgt i32 %5, 0
  br i1 %6, label %.lr.ph, label %._crit_edge

.lr.ph:                                           ; preds = %3
  %7 = getelementptr inbounds i8, ptr %2, i64 8
  %8 = getelementptr inbounds i8, ptr %2, i64 32
  br label %9

9:                                                ; preds = %.lr.ph, %9
  %indvars.iv = phi i64 [ 0, %.lr.ph ], [ %indvars.iv.next, %9 ]
  %10 = load ptr, ptr %7, align 8
  %11 = getelementptr inbounds i8, ptr %10, i64 %indvars.iv
  %12 = load i8, ptr %11, align 1
  %13 = load ptr, ptr %8, align 8
  %14 = getelementptr inbounds i32, ptr %13, i64 %indvars.iv
  %15 = load i32, ptr %14, align 4
  tail call void @_ZN13DumperSupport16dump_field_valueEP18AbstractDumpWritercP7oopDesci(ptr noundef %0, i8 noundef signext %12, ptr noundef %1, i32 noundef %15)
  %indvars.iv.next = add nuw nsw i64 %indvars.iv, 1
  %16 = load i32, ptr %4, align 4
  %17 = sext i32 %16 to i64
  %18 = icmp slt i64 %indvars.iv.next, %17
  br i1 %18, label %9, label %._crit_edge, !llvm.loop !14

._crit_edge:                                      ; preds = %9, %3
  ret void
}